; ModuleID = '45/2429.c'
source_filename = "45/2429.c"
target datalayout = "e-m:e-p270:32:32-p271:32:32-p272:64:64-i64:64-f80:128-n8:16:32:64-S128"
target triple = "x86_64-pc-linux-gnu"

@.str = private unnamed_addr constant [6 x i8] c"%s %s\00", align 1
@.str.1 = private unnamed_addr constant [3 x i8] c"%d\00", align 1

; Function Attrs: noinline nounwind uwtable
define dso_local i32 @check(i32 %0, i8* %1, i8* %2, i32 %3) #0 {
  %5 = alloca i32, align 4
  %6 = alloca i32, align 4
  %7 = alloca i8*, align 8
  %8 = alloca i8*, align 8
  %9 = alloca i32, align 4
  %10 = alloca i32, align 4
  %11 = alloca i32, align 4
  store i32 %0, i32* %6, align 4
  store i8* %1, i8** %7, align 8
  store i8* %2, i8** %8, align 8
  store i32 %3, i32* %9, align 4
  store i32 0, i32* %10, align 4
  store i32 0, i32* %11, align 4
  br label %12

12:                                               ; preds = %36, %4
  %13 = load i32, i32* %11, align 4
  %14 = load i32, i32* %9, align 4
  %15 = icmp slt i32 %13, %14
  br i1 %15, label %16, label %39

16:                                               ; preds = %12
  %17 = load i8*, i8** %7, align 8
  %18 = load i32, i32* %11, align 4
  %19 = sext i32 %18 to i64
  %20 = getelementptr inbounds i8, i8* %17, i64 %19
  %21 = load i8, i8* %20, align 1
  %22 = sext i8 %21 to i32
  %23 = load i8*, i8** %8, align 8
  %24 = load i32, i32* %6, align 4
  %25 = load i32, i32* %11, align 4
  %26 = add nsw i32 %24, %25
  %27 = sext i32 %26 to i64
  %28 = getelementptr inbounds i8, i8* %23, i64 %27
  %29 = load i8, i8* %28, align 1
  %30 = sext i8 %29 to i32
  %31 = icmp eq i32 %22, %30
  br i1 %31, label %32, label %35

32:                                               ; preds = %16
  %33 = load i32, i32* %10, align 4
  %34 = add nsw i32 %33, 1
  store i32 %34, i32* %10, align 4
  br label %35

35:                                               ; preds = %32, %16
  br label %36

36:                                               ; preds = %35
  %37 = load i32, i32* %11, align 4
  %38 = add nsw i32 %37, 1
  store i32 %38, i32* %11, align 4
  br label %12

39:                                               ; preds = %12
  %40 = load i32, i32* %10, align 4
  %41 = load i32, i32* %9, align 4
  %42 = icmp eq i32 %40, %41
  br i1 %42, label %43, label %44

43:                                               ; preds = %39
  store i32 0, i32* %5, align 4
  br label %45

44:                                               ; preds = %39
  store i32 1, i32* %5, align 4
  br label %45

45:                                               ; preds = %44, %43
  %46 = load i32, i32* %5, align 4
  ret i32 %46
}

; Function Attrs: noinline nounwind uwtable
define dso_local i32 @main() #0 {
  %1 = alloca i32, align 4
  %2 = alloca [50 x i8], align 16
  %3 = alloca [50 x i8], align 16
  %4 = alloca i32, align 4
  %5 = alloca i32, align 4
  %6 = alloca i32, align 4
  %7 = alloca i32, align 4
  store i32 0, i32* %1, align 4
  %8 = getelementptr inbounds [50 x i8], [50 x i8]* %2, i64 0, i64 0
  %9 = getelementptr inbounds [50 x i8], [50 x i8]* %3, i64 0, i64 0
  %10 = call i32 (i8*, ...) @__isoc99_scanf(i8* getelementptr inbounds ([6 x i8], [6 x i8]* @.str, i64 0, i64 0), i8* %8, i8* %9)
  store i32 0, i32* %7, align 4
  %11 = getelementptr inbounds [50 x i8], [50 x i8]* %2, i64 0, i64 0
  %12 = call i64 @strlen(i8* %11) #3
  %13 = trunc i64 %12 to i32
  store i32 %13, i32* %5, align 4
  %14 = getelementptr inbounds [50 x i8], [50 x i8]* %3, i64 0, i64 0
  %15 = call i64 @strlen(i8* %14) #3
  %16 = trunc i64 %15 to i32
  store i32 %16, i32* %6, align 4
  store i32 0, i32* %4, align 4
  br label %17

17:                                               ; preds = %30, %0
  %18 = load i32, i32* %4, align 4
  %19 = load i32, i32* %6, align 4
  %20 = icmp slt i32 %18, %19
  br i1 %20, label %21, label %33

21:                                               ; preds = %17
  %22 = load i32, i32* %4, align 4
  %23 = getelementptr inbounds [50 x i8], [50 x i8]* %2, i64 0, i64 0
  %24 = getelementptr inbounds [50 x i8], [50 x i8]* %3, i64 0, i64 0
  %25 = load i32, i32* %5, align 4
  %26 = call i32 @check(i32 %22, i8* %23, i8* %24, i32 %25)
  %27 = icmp eq i32 %26, 0
  br i1 %27, label %28, label %29

28:                                               ; preds = %21
  br label %33

29:                                               ; preds = %21
  br label %30

30:                                               ; preds = %29
  %31 = load i32, i32* %4, align 4
  %32 = add nsw i32 %31, 1
  store i32 %32, i32* %4, align 4
  br label %17

33:                                               ; preds = %28, %17
  %34 = load i32, i32* %4, align 4
  %35 = call i32 (i8*, ...) @printf(i8* getelementptr inbounds ([3 x i8], [3 x i8]* @.str.1, i64 0, i64 0), i32 %34)
  ret i32 0
}

declare dso_local i32 @__isoc99_scanf(i8*, ...) #1

; Function Attrs: nounwind readonly
declare dso_local i64 @strlen(i8*) #2

declare dso_local i32 @printf(i8*, ...) #1


!llvm.module.flags = !{!0}
!llvm.ident = !{!1}

!0 = !{i32 1, !"wchar_size", i32 4}
!1 = !{!"clang version 10.0.0-4ubuntu1 "}
